target datalayout = "e-m:e-p270:32:32-p271:32:32-p272:64:64-i64:64-i128:128-f80:128-n8:16:32:64-S128"
target triple = "x86_64-pc-linux-gnu"

%struct.jpeg_source_mgr = type { ptr, i64, ptr, ptr, ptr, ptr, ptr }
%struct.jpeg_decompress_struct = type { ptr, ptr, ptr, ptr, i32, i32, ptr, i32, i32, i32, i32, i32, i32, i32, double, i32, i32, i32, i32, i32, i32, i32, i32, i32, i32, i32, i32, i32, i32, i32, i32, i32, i32, ptr, i32, i32, i32, i32, i32, ptr, [4 x ptr], [4 x ptr], [4 x ptr], i32, ptr, i32, i32, i32, [16 x i8], [16 x i8], [16 x i8], i32, i32, i8, i8, i8, i16, i16, i32, i8, i32, ptr, i32, i32, i32, i32, i32, ptr, i32, [4 x ptr], i32, i32, i32, [10 x i32], i32, i32, i32, i32, i32, ptr, i32, i32, ptr, ptr, ptr, ptr, ptr, ptr, ptr, ptr, ptr, ptr, ptr }

; Function Attrs: nounwind uwtable
define internal void @dt_imageio_jpeg_skip_input_data(ptr noundef %0, i64 noundef %1) #0 {
  %3 = alloca ptr, align 8
  %4 = alloca i64, align 8
  %5 = alloca i64, align 8
  store ptr %0, ptr %3, align 8, !tbaa !70
  store i64 %1, ptr %4, align 8, !tbaa !10
  call void @llvm.lifetime.start.p0(i64 8, ptr %5) #9
  %6 = load ptr, ptr %3, align 8, !tbaa !70
  %7 = getelementptr inbounds nuw %struct.jpeg_decompress_struct, ptr %6, i32 0, i32 6
  %8 = load ptr, ptr %7, align 8, !tbaa !72
  %9 = getelementptr inbounds nuw %struct.jpeg_source_mgr, ptr %8, i32 0, i32 1
  %10 = load i64, ptr %9, align 8, !tbaa !73
  %11 = load i64, ptr %4, align 8, !tbaa !10
  %12 = sub i64 %10, %11
  store i64 %12, ptr %5, align 8, !tbaa !10
  %13 = load i64, ptr %5, align 8, !tbaa !10
  %14 = icmp slt i64 %13, 0
  br i1 %14, label %15, label %16

15:                                               ; preds = %2
  store i64 0, ptr %5, align 8, !tbaa !10
  br label %16

16:                                               ; preds = %15, %2
  %17 = load i64, ptr %5, align 8, !tbaa !10
  %18 = load ptr, ptr %3, align 8, !tbaa !70
  %19 = getelementptr inbounds nuw %struct.jpeg_decompress_struct, ptr %18, i32 0, i32 6
  %20 = load ptr, ptr %19, align 8, !tbaa !72
  %21 = getelementptr inbounds nuw %struct.jpeg_source_mgr, ptr %20, i32 0, i32 1
  store i64 %17, ptr %21, align 8, !tbaa !73
  %22 = load i64, ptr %4, align 8, !tbaa !10
  %23 = load ptr, ptr %3, align 8, !tbaa !70
  %24 = getelementptr inbounds nuw %struct.jpeg_decompress_struct, ptr %23, i32 0, i32 6
  %25 = load ptr, ptr %24, align 8, !tbaa !72
  %26 = getelementptr inbounds nuw %struct.jpeg_source_mgr, ptr %25, i32 0, i32 0
  %27 = load ptr, ptr %26, align 8, !tbaa !74
  %28 = getelementptr inbounds i8, ptr %27, i64 %22
  store ptr %28, ptr %26, align 8, !tbaa !74
  call void @llvm.lifetime.end.p0(i64 8, ptr %5) #9
  ret void
}