; Function Attrs: mustprogress nofree norecurse nosync nounwind willreturn memory(readwrite, inaccessiblemem: none) uwtable
define internal void @dt_imageio_jpeg_skip_input_data(ptr noundef readonly captures(none) %0, i64 noundef %1) #3 {
  %3 = getelementptr inbounds nuw i8, ptr %0, i64 40
  %4 = load ptr, ptr %3, align 8, !tbaa !66
  %5 = getelementptr inbounds nuw i8, ptr %4, i64 8
  %6 = load i64, ptr %5, align 8, !tbaa !67
  %7 = sub i64 %6, %1
  %spec.store.select = tail call i64 @llvm.smax.i64(i64 %7, i64 0)
  store i64 %spec.store.select, ptr %5, align 8, !tbaa !67
  %8 = load ptr, ptr %4, align 8, !tbaa !68
  %9 = getelementptr inbounds i8, ptr %8, i64 %1
  store ptr %9, ptr %4, align 8, !tbaa !68
  ret void
}